target datalayout = "e-m:e-p270:32:32-p271:32:32-p272:64:64-i64:64-i128:128-f80:128-n8:16:32:64-S128"
target triple = "x86_64-unknown-linux-gnu"

%struct.redisAsyncContext = type { %struct.redisContext, i32, ptr, ptr, ptr, %struct.anon.2, ptr, ptr, ptr, %struct.redisCallbackList, ptr, i64, %struct.anon.3, ptr }
%struct.redisContext = type { ptr, i32, [128 x i8], i32, i32, ptr, ptr, i32, ptr, ptr, %struct.anon.0, %struct.anon.1, ptr, i64, ptr, ptr, ptr, ptr }
%struct.anon.0 = type { ptr, ptr, i32 }
%struct.anon.1 = type { ptr }
%struct.anon.2 = type { ptr, ptr, ptr, ptr, ptr, ptr, ptr }
%struct.redisCallbackList = type { ptr, ptr }
%struct.anon.3 = type { %struct.redisCallbackList, ptr, ptr, i32 }

; Function Attrs: nounwind uwtable
define void @redisAsyncFree(ptr noundef %ac) #0 {
entry:
  %ac.addr = alloca ptr, align 8
  %c = alloca ptr, align 8
  store ptr %ac, ptr %ac.addr, align 8
  %0 = load ptr, ptr %ac.addr, align 8
  %cmp = icmp eq ptr %0, null
  br i1 %cmp, label %if.then, label %if.end

if.then:                                          ; preds = %entry
  br label %if.end4

if.end:                                           ; preds = %entry
  %1 = load ptr, ptr %ac.addr, align 8
  %c1 = getelementptr inbounds %struct.redisAsyncContext, ptr %1, i32 0, i32 0
  store ptr %c1, ptr %c, align 8
  %2 = load ptr, ptr %c, align 8
  %flags = getelementptr inbounds %struct.redisContext, ptr %2, i32 0, i32 4
  %3 = load i32, ptr %flags, align 8
  %or = or i32 %3, 8
  store i32 %or, ptr %flags, align 8
  %4 = load ptr, ptr %c, align 8
  %flags2 = getelementptr inbounds %struct.redisContext, ptr %4, i32 0, i32 4
  %5 = load i32, ptr %flags2, align 8
  %and = and i32 %5, 16
  %tobool = icmp ne i32 %and, 0
  br i1 %tobool, label %if.end4, label %if.then3

if.then3:                                         ; preds = %if.end
  %6 = load ptr, ptr %ac.addr, align 8
  call void @__redisAsyncFree(ptr noundef %6)
  br label %if.end4

if.end4:                                          ; preds = %if.then3, %if.end, %if.then
  ret void
}