; Function Attrs: nounwind uwtable
define void @redisAsyncFree(ptr noundef %ac) local_unnamed_addr #0 {
entry:
  %cmp = icmp eq ptr %ac, null
  br i1 %cmp, label %if.end4, label %if.end

if.end:                                           ; preds = %entry
  %flags = getelementptr inbounds i8, ptr %ac, i64 144
  %0 = load i32, ptr %flags, align 8
  %or = or i32 %0, 8
  store i32 %or, ptr %flags, align 8
  %and = and i32 %0, 16
  %tobool.not = icmp eq i32 %and, 0
  br i1 %tobool.not, label %if.then3, label %if.end4

if.then3:                                         ; preds = %if.end
  tail call fastcc void @__redisAsyncFree(ptr noundef nonnull %ac)
  br label %if.end4

if.end4:                                          ; preds = %entry, %if.then3, %if.end
  ret void
}